; Function Attrs: mustprogress nounwind uwtable
define internal void @_ZN4node12_GLOBAL__N_120BrotliDecoderContextD0Ev(ptr noundef nonnull align 8 dereferenceable(128) %this) unnamed_addr #3 align 2 {
entry:
  %state_.i = getelementptr inbounds i8, ptr %this, i64 120
  %0 = load ptr, ptr %state_.i, align 8
  %cmp.not.i.i = icmp eq ptr %0, null
  br i1 %cmp.not.i.i, label %_ZN4node12_GLOBAL__N_120BrotliDecoderContextD2Ev.exit, label %if.then.i.i

if.then.i.i:                                      ; preds = %entry
  tail call void @BrotliDecoderDestroyInstance(ptr noundef nonnull %0) #22
  br label %_ZN4node12_GLOBAL__N_120BrotliDecoderContextD2Ev.exit

_ZN4node12_GLOBAL__N_120BrotliDecoderContextD2Ev.exit: ; preds = %entry, %if.then.i.i
  store ptr null, ptr %state_.i, align 8
  %error_string_.i = getelementptr inbounds i8, ptr %this, i64 88
  tail call void @_ZNSt7__cxx1112basic_stringIcSt11char_traitsIcESaIcEED1Ev(ptr noundef nonnull align 8 dereferenceable(32) %error_string_.i) #22
  tail call void @_ZdlPv(ptr noundef nonnull %this) #25
  ret void
}